(dp0
S'sopt_msg'
p1
(S'After '
p2
S'28'
p3
S'function evaluations, TNC returned:'
p4
S'Converged (|f_n-f_(n-1)| ~= 0)'
p5
tp6
sS'sopt_nf'
p7
I28
sS'sopt_res'
p8
cnumpy.core.multiarray
_reconstruct
p9
(cnumpy
ndarray
p10
(I0
tp11
S'b'
p12
tp13
Rp14
(I1
(I4
tp15
cnumpy
dtype
p16
(S'f8'
p17
I0
I1
tp18
Rp19
(I3
S'<'
p20
NNNI-1
I-1
I0
tp21
bI00
S'\x00\x00\x00\x00\x00\x00$@\xe5\xef\t_\xa6\x15\n\xc0X\x96\x12\xdc\xe8\xf1\x12@\x94V\xdf\xf3\xd9\x985@'
p22
tp23
bsS'init_prms'
p24
(lp25
F6.23741017
aF-2.1430682
aF4.59332686
aF20.0
asS'opt_wts'
p26
g9
(g10
(I0
tp27
g12
tp28
Rp29
(I1
(I2
tp30
g19
I00
S'\x00\x00\x00\x00\x00\x00$@\xe5\xef\t_\xa6\x15\n\xc0'
p31
tp32
bsS'prms_bds'
p33
(lp34
(F1.0
F10.0
tp35
a(F-10.0
F-0.05
tp36
a(I2
I100
tp37
a(I2
I200
tp38
asS'opt_delays'
p39
g9
(g10
(I0
tp40
g12
tp41
Rp42
(I1
(I2
tp43
g16
(S'i8'
p44
I0
I1
tp45
Rp46
(I3
S'<'
p47
NNNI-1
I-1
I0
tp48
bI00
S'\x00\x00\x00\x00\x00\x00\x00\x00\x05\x00\x00\x00\x00\x00\x00\x00'
p49
tp50
bsS'opt_kpeaks'
p51
g9
(g10
(I0
tp52
g12
tp53
Rp54
(I1
(I2
tp55
g19
I00
S'X\x96\x12\xdc\xe8\xf1\x12@\x94V\xdf\xf3\xd9\x985@'
p56
tp57
bs.